target datalayout = "e-m:e-p270:32:32-p271:32:32-p272:64:64-i64:64-i128:128-f80:128-n8:16:32:64-S128"
target triple = "x86_64-pc-linux-gnu"

%union.pthread_mutex_t = type { %struct.__pthread_mutex_s }
%struct.__pthread_mutex_s = type { i32, i32, i32, i32, i32, i16, i16, %struct.__pthread_internal_list }
%struct.__pthread_internal_list = type { ptr, ptr }
%struct.pmix_tma = type { ptr, ptr, ptr, ptr, ptr, ptr, ptr, ptr }
%struct.pmix_list_t = type { %struct.pmix_object_t, %struct.pmix_list_item_t, i64 }
%struct.pmix_object_t = type { %union.pthread_mutex_t, ptr, i32, %struct.pmix_tma }
%struct.pmix_list_item_t = type { %struct.pmix_object_t, ptr, ptr, i32 }
%struct.prte_rmaps_base_t = type { %struct.pmix_list_t, i16, i16, ptr, i8, i8, ptr, ptr, ptr, ptr, i8 }

@.str = private unnamed_addr constant [5 x i8] c"prte\00", align 1
@.str.1 = private unnamed_addr constant [6 x i8] c"rmaps\00", align 1
@.str.44 = private unnamed_addr constant [8 x i8] c"default\00", align 1
@.str.45 = private unnamed_addr constant [15 x i8] c"mapping_policy\00", align 1
@rmaps_base_ranking_policy = internal global ptr null, align 8
@.str.47 = private unnamed_addr constant [15 x i8] c"ranking_policy\00", align 1
@.str.48 = private unnamed_addr constant [51 x i8] c"Default ranking Policy [slot | node | span | fill]\00", align 1
@rmaps_base_inherit = internal global i8 0, align 1
@.str.49 = private unnamed_addr constant [8 x i8] c"inherit\00", align 1
@.str.50 = private unnamed_addr constant [97 x i8] c"Whether child jobs shall inherit mapping/ranking/binding directives from their parent by default\00", align 1

; Function Attrs: nounwind uwtable
define internal i32 @prte_rmaps_base_register(i32 noundef %0) #0 {
  %2 = alloca i32, align 4
  store i32 %0, ptr %2, align 4, !tbaa !3
  store ptr null, ptr getelementptr inbounds nuw (%struct.prte_rmaps_base_t, ptr @prte_rmaps_base, i32 0, i32 9), align 8, !tbaa !7
  %3 = call i32 @pmix_mca_base_var_register(ptr noundef @.str, ptr noundef @.str.1, ptr noundef @.str.44, ptr noundef @.str.45, ptr noundef @.str.46, i32 noundef 5, ptr noundef getelementptr inbounds nuw (%struct.prte_rmaps_base_t, ptr @prte_rmaps_base, i32 0, i32 9))
  store ptr null, ptr @rmaps_base_ranking_policy, align 8, !tbaa !21
  %4 = call i32 @pmix_mca_base_var_register(ptr noundef @.str, ptr noundef @.str.1, ptr noundef @.str.44, ptr noundef @.str.47, ptr noundef @.str.48, i32 noundef 5, ptr noundef @rmaps_base_ranking_policy)
  store i8 0, ptr @rmaps_base_inherit, align 1, !tbaa !22
  %5 = call i32 @pmix_mca_base_var_register(ptr noundef @.str, ptr noundef @.str.1, ptr noundef @.str.44, ptr noundef @.str.49, ptr noundef @.str.50, i32 noundef 7, ptr noundef @rmaps_base_inherit)
  ret i32 0
}