; Function Attrs: nounwind uwtable
define internal noundef i32 @prte_rmaps_base_register(i32 %0) #0 {
  store ptr null, ptr getelementptr inbounds nuw (i8, ptr @prte_rmaps_base, i64 320), align 8, !tbaa !3
  %2 = tail call i32 @pmix_mca_base_var_register(ptr noundef nonnull @.str, ptr noundef nonnull @.str.1, ptr noundef nonnull @.str.44, ptr noundef nonnull @.str.45, ptr noundef nonnull @.str.46, i32 noundef 5, ptr noundef nonnull getelementptr inbounds nuw (i8, ptr @prte_rmaps_base, i64 320)) #16
  store ptr null, ptr @rmaps_base_ranking_policy, align 8, !tbaa !20
  %3 = tail call i32 @pmix_mca_base_var_register(ptr noundef nonnull @.str, ptr noundef nonnull @.str.1, ptr noundef nonnull @.str.44, ptr noundef nonnull @.str.47, ptr noundef nonnull @.str.48, i32 noundef 5, ptr noundef nonnull @rmaps_base_ranking_policy) #16
  store i8 0, ptr @rmaps_base_inherit, align 1, !tbaa !21
  %4 = tail call i32 @pmix_mca_base_var_register(ptr noundef nonnull @.str, ptr noundef nonnull @.str.1, ptr noundef nonnull @.str.44, ptr noundef nonnull @.str.49, ptr noundef nonnull @.str.50, i32 noundef 7, ptr noundef nonnull @rmaps_base_inherit) #16
  ret i32 0
}